; Function Attrs: mustprogress uwtable
define noundef double @_ZNK5Ipopt14CompoundVector8Nrm2ImplEv(ptr noundef nonnull readonly align 8 captures(none) dereferenceable(265) %0) unnamed_addr #0 align 2 {
  %2 = getelementptr inbounds nuw i8, ptr %0, i64 256
  %3 = load ptr, ptr %2, align 8, !tbaa !60
  %4 = getelementptr inbounds nuw i8, ptr %3, i64 16
  %5 = load i32, ptr %4, align 8, !tbaa !37
  %6 = icmp sgt i32 %5, 0
  br i1 %6, label %.lr.ph, label %._crit_edge

.lr.ph:                                           ; preds = %1
  %7 = getelementptr inbounds nuw i8, ptr %0, i64 208
  %8 = getelementptr inbounds nuw i8, ptr %0, i64 232
  br label %10

._crit_edge:                                      ; preds = %_ZNK5Ipopt6Vector4Nrm2Ev.exit, %1
  %.0.lcssa = phi double [ 0.000000e+00, %1 ], [ %32, %_ZNK5Ipopt6Vector4Nrm2Ev.exit ]
  %9 = tail call double @sqrt(double noundef %.0.lcssa) #23, !tbaa !108
  ret double %9

10:                                               ; preds = %.lr.ph, %_ZNK5Ipopt6Vector4Nrm2Ev.exit
  %11 = phi ptr [ %3, %.lr.ph ], [ %30, %_ZNK5Ipopt6Vector4Nrm2Ev.exit ]
  %indvars.iv = phi i64 [ 0, %.lr.ph ], [ %indvars.iv.next, %_ZNK5Ipopt6Vector4Nrm2Ev.exit ]
  %.010 = phi double [ 0.000000e+00, %.lr.ph ], [ %32, %_ZNK5Ipopt6Vector4Nrm2Ev.exit ]
  %12 = load ptr, ptr %7, align 8, !tbaa !45
  %13 = getelementptr inbounds nuw %"class.Ipopt::SmartPtr.15", ptr %12, i64 %indvars.iv
  %14 = load ptr, ptr %13, align 8, !tbaa !48
  %.not.i = icmp eq ptr %14, null
  br i1 %.not.i, label %15, label %_ZNK5Ipopt14CompoundVector9ConstCompEi.exit

15:                                               ; preds = %10
  %16 = load ptr, ptr %8, align 8, !tbaa !53
  %17 = getelementptr inbounds nuw %"class.Ipopt::SmartPtr.16", ptr %16, i64 %indvars.iv
  %18 = load ptr, ptr %17, align 8, !tbaa !56
  br label %_ZNK5Ipopt14CompoundVector9ConstCompEi.exit

_ZNK5Ipopt14CompoundVector9ConstCompEi.exit:      ; preds = %10, %15
  %.0.i = phi ptr [ %14, %10 ], [ %18, %15 ]
  %19 = getelementptr inbounds nuw i8, ptr %.0.i, i64 88
  %20 = load i32, ptr %19, align 8, !tbaa !18
  %21 = getelementptr inbounds nuw i8, ptr %.0.i, i64 48
  %22 = load i32, ptr %21, align 8, !tbaa !89
  %.not.i8 = icmp eq i32 %20, %22
  br i1 %.not.i8, label %._crit_edge.i, label %23

._crit_edge.i:                                    ; preds = %_ZNK5Ipopt14CompoundVector9ConstCompEi.exit
  %.phi.trans.insert.i = getelementptr inbounds nuw i8, ptr %.0.i, i64 96
  %.pre.i = load double, ptr %.phi.trans.insert.i, align 8, !tbaa !90
  br label %_ZNK5Ipopt6Vector4Nrm2Ev.exit

23:                                               ; preds = %_ZNK5Ipopt14CompoundVector9ConstCompEi.exit
  %24 = load ptr, ptr %.0.i, align 8, !tbaa !8
  %25 = getelementptr inbounds nuw i8, ptr %24, i64 48
  %26 = load ptr, ptr %25, align 8
  %27 = tail call noundef double %26(ptr noundef nonnull align 8 dereferenceable(205) %.0.i)
  %28 = getelementptr inbounds nuw i8, ptr %.0.i, i64 96
  store double %27, ptr %28, align 8, !tbaa !90
  %29 = load i32, ptr %21, align 8, !tbaa !89
  store i32 %29, ptr %19, align 8, !tbaa !18
  %.pre = load ptr, ptr %2, align 8, !tbaa !60
  br label %_ZNK5Ipopt6Vector4Nrm2Ev.exit

_ZNK5Ipopt6Vector4Nrm2Ev.exit:                    ; preds = %._crit_edge.i, %23
  %30 = phi ptr [ %11, %._crit_edge.i ], [ %.pre, %23 ]
  %31 = phi double [ %.pre.i, %._crit_edge.i ], [ %27, %23 ]
  %32 = tail call double @llvm.fmuladd.f64(double %31, double %31, double %.010)
  %indvars.iv.next = add nuw nsw i64 %indvars.iv, 1
  %33 = getelementptr inbounds nuw i8, ptr %30, i64 16
  %34 = load i32, ptr %33, align 8, !tbaa !37
  %35 = sext i32 %34 to i64
  %36 = icmp slt i64 %indvars.iv.next, %35
  br i1 %36, label %10, label %._crit_edge, !llvm.loop !109
}